; Function Attrs: nounwind uwtable
define internal fastcc range(i32 0, 2) i32 @r_shortv(ptr noundef %0) unnamed_addr #0 {
  %2 = tail call i32 @out_grouping_b(ptr noundef %0, ptr noundef nonnull @g_v_WXY, i32 noundef 89, i32 noundef 121, i32 noundef 0) #3
  %.not = icmp eq i32 %2, 0
  br i1 %.not, label %3, label %7

3:                                                ; preds = %1
  %4 = tail call i32 @in_grouping_b(ptr noundef %0, ptr noundef nonnull @g_v, i32 noundef 97, i32 noundef 121, i32 noundef 0) #3
  %.not3 = icmp eq i32 %4, 0
  br i1 %.not3, label %5, label %7

5:                                                ; preds = %3
  %6 = tail call i32 @out_grouping_b(ptr noundef %0, ptr noundef nonnull @g_v, i32 noundef 97, i32 noundef 121, i32 noundef 0) #3
  %.not4 = icmp eq i32 %6, 0
  %. = zext i1 %.not4 to i32
  br label %7

7:                                                ; preds = %5, %3, %1
  %.0 = phi i32 [ 0, %1 ], [ 0, %3 ], [ %., %5 ]
  ret i32 %.0
}